; Function Attrs: mustprogress uwtable
define noundef i32 @_ZN6icu_7516EthiopicCalendar21handleGetExtendedYearEv(ptr noundef nonnull align 8 dereferenceable(618) %this) unnamed_addr #1 align 2 {
entry:
  %call = tail call noundef i32 @_ZNK6icu_758Calendar10newerFieldE19UCalendarDateFieldsS1_(ptr noundef nonnull align 8 dereferenceable(618) %this, i32 noundef 19, i32 noundef 1)
  %cmp = icmp eq i32 %call, 19
  br i1 %cmp, label %if.then, label %if.end

if.then:                                          ; preds = %entry
  %arrayidx.i = getelementptr inbounds i8, ptr %this, i64 208
  %0 = load i32, ptr %arrayidx.i, align 8
  %cmp.i = icmp sgt i32 %0, 0
  br i1 %cmp.i, label %cond.true.i, label %return

cond.true.i:                                      ; preds = %if.then
  %arrayidx3.i = getelementptr inbounds i8, ptr %this, i64 88
  %1 = load i32, ptr %arrayidx3.i, align 8
  br label %return

if.end:                                           ; preds = %entry
  %fStamp.i1 = getelementptr inbounds i8, ptr %this, i64 132
  %2 = load i32, ptr %fStamp.i1, align 4
  %cmp.i2 = icmp slt i32 %2, 1
  %fFields.i5 = getelementptr inbounds i8, ptr %this, i64 12
  %3 = load i32, ptr %fFields.i5, align 4
  %cmp4 = icmp eq i32 %3, 1
  %or.cond = select i1 %cmp.i2, i1 true, i1 %cmp4
  %arrayidx.i8 = getelementptr inbounds i8, ptr %this, i64 136
  %4 = load i32, ptr %arrayidx.i8, align 8
  br i1 %or.cond, label %if.then5, label %if.end7

if.then5:                                         ; preds = %if.end
  %cmp.i9 = icmp sgt i32 %4, 0
  br i1 %cmp.i9, label %cond.true.i11, label %return

cond.true.i11:                                    ; preds = %if.then5
  %arrayidx3.i13 = getelementptr inbounds i8, ptr %this, i64 16
  %5 = load i32, ptr %arrayidx3.i13, align 8
  br label %return

if.end7:                                          ; preds = %if.end
  %arrayidx3.i21 = getelementptr inbounds i8, ptr %this, i64 16
  %6 = load i32, ptr %arrayidx3.i21, align 8
  %cmp.i17.inv = icmp slt i32 %4, 1
  %7 = add nsw i32 %6, -5500
  %sub = select i1 %cmp.i17.inv, i32 -5499, i32 %7
  br label %return

return:                                           ; preds = %cond.true.i11, %if.then5, %cond.true.i, %if.then, %if.end7
  %retval.0 = phi i32 [ %sub, %if.end7 ], [ %1, %cond.true.i ], [ 1, %if.then ], [ %5, %cond.true.i11 ], [ 1, %if.then5 ]
  ret i32 %retval.0
}